; Listing generated by Microsoft (R) Optimizing Compiler Version 19.23.28105.4 

include listing.inc

INCLUDELIB MSVCRTD
INCLUDELIB OLDNAMES

CONST	SEGMENT
$SG133187 DB	'C:\Qt\5.11.2\msvc2017_64\include\QtCore\qmetatype.h', 00H
$SG134667 DB	'%s', 00H
	ORG $+9
$SG133188 DB	'qRegisterNormalizedMetaType was called with a not normal'
	DB	'ized type name, please call qRegisterMetaType instead.', 00H
	ORG $+1
$SG133189 DB	'qRegisterNormalizedMetaType', 00H
	ORG $+4
$SG133526 DB	'C:\Qt\5.11.2\msvc2017_64\include\QtCore\qmetatype.h', 00H
	ORG $+12
$SG133527 DB	'qRegisterNormalizedMetaType was called with a not normal'
	DB	'ized type name, please call qRegisterMetaType instead.', 00H
	ORG $+1
$SG133528 DB	'qRegisterNormalizedMetaType', 00H
	ORG $+4
$SG133865 DB	'C:\Qt\5.11.2\msvc2017_64\include\QtCore\qmetatype.h', 00H
	ORG $+12
$SG133866 DB	'qRegisterNormalizedMetaType was called with a not normal'
	DB	'ized type name, please call qRegisterMetaType instead.', 00H
	ORG $+1
$SG133867 DB	'qRegisterNormalizedMetaType', 00H
	ORG $+4
$SG134666 DB	'invalid argument', 00H
	ORG $+15
$SG134668 DB	'C:\Program Files (x86)\Microsoft Visual Studio\2019\Comm'
	DB	'unity\VC\Tools\MSVC\14.23.28105\include\xmemory', 00H
	ORG $+8
$SG134669 DB	'C', 00H, ':', 00H, '\', 00H, 'P', 00H, 'r', 00H, 'o', 00H
	DB	'g', 00H, 'r', 00H, 'a', 00H, 'm', 00H, ' ', 00H, 'F', 00H, 'i'
	DB	00H, 'l', 00H, 'e', 00H, 's', 00H, ' ', 00H, '(', 00H, 'x', 00H
	DB	'8', 00H, '6', 00H, ')', 00H, '\', 00H, 'M', 00H, 'i', 00H, 'c'
	DB	00H, 'r', 00H, 'o', 00H, 's', 00H, 'o', 00H, 'f', 00H, 't', 00H
	DB	' ', 00H, 'V', 00H, 'i', 00H, 's', 00H, 'u', 00H, 'a', 00H, 'l'
	DB	00H, ' ', 00H, 'S', 00H, 't', 00H, 'u', 00H, 'd', 00H, 'i', 00H
	DB	'o', 00H, '\', 00H, '2', 00H, '0', 00H, '1', 00H, '9', 00H, '\'
	DB	00H, 'C', 00H, 'o', 00H, 'm', 00H, 'm', 00H, 'u', 00H, 'n', 00H
	DB	'i', 00H, 't', 00H, 'y', 00H, '\', 00H, 'V', 00H, 'C', 00H, '\'
	DB	00H, 'T', 00H, 'o', 00H, 'o', 00H, 'l', 00H, 's', 00H, '\', 00H
	DB	'M', 00H, 'S', 00H, 'V', 00H, 'C', 00H, '\', 00H, '1', 00H, '4'
	DB	00H, '.', 00H, '2', 00H, '3', 00H, '.', 00H, '2', 00H, '8', 00H
	DB	'1', 00H, '0', 00H, '5', 00H, '\', 00H, 'i', 00H, 'n', 00H, 'c'
	DB	00H, 'l', 00H, 'u', 00H, 'd', 00H, 'e', 00H, '\', 00H, 'x', 00H
	DB	'm', 00H, 'e', 00H, 'm', 00H, 'o', 00H, 'r', 00H, 'y', 00H, 00H
	DB	00H
$SG134670 DB	's', 00H, 't', 00H, 'd', 00H, ':', 00H, ':', 00H, '_', 00H
	DB	'A', 00H, 'l', 00H, 'l', 00H, 'o', 00H, 'c', 00H, 'a', 00H, 't'
	DB	00H, 'e', 00H, '_', 00H, 'm', 00H, 'a', 00H, 'n', 00H, 'u', 00H
	DB	'a', 00H, 'l', 00H, 'l', 00H, 'y', 00H, '_', 00H, 'v', 00H, 'e'
	DB	00H, 'c', 00H, 't', 00H, 'o', 00H, 'r', 00H, '_', 00H, 'a', 00H
	DB	'l', 00H, 'i', 00H, 'g', 00H, 'n', 00H, 'e', 00H, 'd', 00H, 00H
	DB	00H
	ORG $+2
$SG134671 DB	'"', 00H, 'i', 00H, 'n', 00H, 'v', 00H, 'a', 00H, 'l', 00H
	DB	'i', 00H, 'd', 00H, ' ', 00H, 'a', 00H, 'r', 00H, 'g', 00H, 'u'
	DB	00H, 'm', 00H, 'e', 00H, 'n', 00H, 't', 00H, '"', 00H, 00H, 00H
	ORG $+10
$SG134778 DB	'C:\Program Files (x86)\Microsoft Visual Studio\2019\Comm'
	DB	'unity\VC\Tools\MSVC\14.23.28105\include\xlocale', 00H
	ORG $+8
?qt_meta_stringdata_sw01_qt_first_project@@3Uqt_meta_stringdata_sw01_qt_first_project_t@@B DD 0ffffffffH ; qt_meta_stringdata_sw01_qt_first_project
	DD	015H
	DD	00H
	ORG $+4
	DQ	0000000000000048H
	DD	0ffffffffH
	DD	0fH
	DD	00H
	ORG $+4
	DQ	0000000000000046H
	DD	0ffffffffH
	DD	00H
	DD	00H
	ORG $+4
	DQ	000000000000003eH
	DB	073H
	DB	077H
	DB	030H
	DB	031H
	DB	05fH
	DB	071H
	DB	074H
	DB	05fH
	DB	066H
	DB	069H
	DB	072H
	DB	073H
	DB	074H
	DB	05fH
	DB	070H
	DB	072H
	DB	06fH
	DB	06aH
	DB	065H
	DB	063H
	DB	074H
	DB	00H
	DB	06dH
	DB	079H
	DB	042H
	DB	075H
	DB	074H
	DB	074H
	DB	06fH
	DB	06eH
	DB	053H
	DB	06cH
	DB	06fH
	DB	074H
	DB	046H
	DB	06bH
	DB	074H
	DB	00H
	DB	00H
	ORG $+1
?qt_meta_data_sw01_qt_first_project@@3QBIB DD 08H	; qt_meta_data_sw01_qt_first_project
	DD	00H
	DD	00H
	DD	00H
	DD	01H
	DD	0eH
	DD	00H
	DD	00H
	DD	00H
	DD	00H
	DD	00H
	DD	00H
	DD	00H
	DD	00H
	DD	01H
	DD	00H
	DD	013H
	DD	02H
	DD	08H
	DD	02bH
	DD	00H
	ORG $+4
$SG130419 DB	'C:\Qt\5.11.2\msvc2017_64\include\QtCore\qmetatype.h', 00H
	ORG $+4
$SG130420 DB	'qRegisterNormalizedMetaType was called with a not normal'
	DB	'ized type name, please call qRegisterMetaType instead.', 00H
	ORG $+1
$SG130421 DB	'qRegisterNormalizedMetaType', 00H
CONST	ENDS
PUBLIC	?__empty_global_delete@@YAXPEAX@Z		; __empty_global_delete
PUBLIC	?__empty_global_delete@@YAXPEAX_K@Z		; __empty_global_delete
PUBLIC	??C?$QScopedPointer@VQObjectData@@U?$QScopedPointerDeleter@VQObjectData@@@@@@QEBAPEAVQObjectData@@XZ ; QScopedPointer<QObjectData,QScopedPointerDeleter<QObjectData> >::operator->
PUBLIC	?metaObject@sw01_qt_first_project@@UEBAPEBUQMetaObject@@XZ ; sw01_qt_first_project::metaObject
PUBLIC	?qt_metacast@sw01_qt_first_project@@UEAAPEAXPEBD@Z ; sw01_qt_first_project::qt_metacast
PUBLIC	?qt_metacall@sw01_qt_first_project@@UEAAHW4Call@QMetaObject@@HPEAPEAX@Z ; sw01_qt_first_project::qt_metacall
PUBLIC	?qt_static_metacall@sw01_qt_first_project@@CAXPEAVQObject@@W4Call@QMetaObject@@HPEAPEAX@Z ; sw01_qt_first_project::qt_static_metacall
PUBLIC	?staticMetaObject@sw01_qt_first_project@@2UQMetaObject@@B ; sw01_qt_first_project::staticMetaObject
EXTRN	strcmp:PROC
EXTRN	__imp_?dynamicMetaObject@QObjectData@@QEBAPEAUQMetaObject@@XZ:PROC
EXTRN	__imp_?qt_metacast@QMainWindow@@UEAAPEAXPEBD@Z:PROC
EXTRN	__imp_?qt_metacall@QMainWindow@@UEAAHW4Call@QMetaObject@@HPEAPEAX@Z:PROC
EXTRN	?myButtonSlotFkt@sw01_qt_first_project@@AEAAXXZ:PROC ; sw01_qt_first_project::myButtonSlotFkt
EXTRN	__imp_?staticMetaObject@QMainWindow@@2UQMetaObject@@B:BYTE
_BSS	SEGMENT
?staticMetaObject@sw01_qt_first_project@@2UQMetaObject@@B DB 030H DUP (?) ; sw01_qt_first_project::staticMetaObject
_BSS	ENDS
pdata	SEGMENT
$pdata$?metaObject@sw01_qt_first_project@@UEBAPEBUQMetaObject@@XZ DD imagerel $LN5
	DD	imagerel $LN5+88
	DD	imagerel $unwind$?metaObject@sw01_qt_first_project@@UEBAPEBUQMetaObject@@XZ
$pdata$?qt_metacast@sw01_qt_first_project@@UEAAPEAXPEBD@Z DD imagerel $LN5
	DD	imagerel $LN5+75
	DD	imagerel $unwind$?qt_metacast@sw01_qt_first_project@@UEAAPEAXPEBD@Z
$pdata$?qt_metacall@sw01_qt_first_project@@UEAAHW4Call@QMetaObject@@HPEAPEAX@Z DD imagerel $LN9
	DD	imagerel $LN9+172
	DD	imagerel $unwind$?qt_metacall@sw01_qt_first_project@@UEAAHW4Call@QMetaObject@@HPEAPEAX@Z
$pdata$?qt_static_metacall@sw01_qt_first_project@@CAXPEAVQObject@@W4Call@QMetaObject@@HPEAPEAX@Z DD imagerel $LN8
	DD	imagerel $LN8+72
	DD	imagerel $unwind$?qt_static_metacall@sw01_qt_first_project@@CAXPEAVQObject@@W4Call@QMetaObject@@HPEAPEAX@Z
pdata	ENDS
CRT$XCU	SEGMENT
??staticMetaObject$initializer$@sw01_qt_first_project@@2P6AXXZEA@@3P6AXXZEA DQ FLAT:??__E?staticMetaObject@sw01_qt_first_project@@2UQMetaObject@@B@@YAXXZ ; ??staticMetaObject$initializer$@sw01_qt_first_project@@2P6AXXZEA@@3P6AXXZEA
CRT$XCU	ENDS
xdata	SEGMENT
$unwind$?metaObject@sw01_qt_first_project@@UEBAPEBUQMetaObject@@XZ DD 010901H
	DD	06209H
$unwind$?qt_metacast@sw01_qt_first_project@@UEAAPEAXPEBD@Z DD 010e01H
	DD	0420eH
$unwind$?qt_metacall@sw01_qt_first_project@@UEAAHW4Call@QMetaObject@@HPEAPEAX@Z DD 011701H
	DD	04217H
$unwind$?qt_static_metacall@sw01_qt_first_project@@CAXPEAVQObject@@W4Call@QMetaObject@@HPEAPEAX@Z DD 011701H
	DD	06217H
xdata	ENDS
; Function compile flags: /Odtp
;	COMDAT ??__E?staticMetaObject@sw01_qt_first_project@@2UQMetaObject@@B@@YAXXZ
text$di	SEGMENT
??__E?staticMetaObject@sw01_qt_first_project@@2UQMetaObject@@B@@YAXXZ PROC ; `dynamic initializer for 'sw01_qt_first_project::staticMetaObject'', COMDAT
; File C:\Users\olafj_000\mySciebo\_TIN_WS19\_TIN_SW_BSP\Kap13_Qt\sw01_qt_first_project\sw01_qt_first_project\GeneratedFiles\Debug\moc_sw01_qt_first_project.cpp
; Line 80
	mov	rax, QWORD PTR __imp_?staticMetaObject@QMainWindow@@2UQMetaObject@@B
	mov	QWORD PTR ?staticMetaObject@sw01_qt_first_project@@2UQMetaObject@@B, rax
; Line 81
	lea	rax, OFFSET FLAT:?qt_meta_stringdata_sw01_qt_first_project@@3Uqt_meta_stringdata_sw01_qt_first_project_t@@B
	mov	QWORD PTR ?staticMetaObject@sw01_qt_first_project@@2UQMetaObject@@B+8, rax
; Line 82
	lea	rax, OFFSET FLAT:?qt_meta_data_sw01_qt_first_project@@3QBIB
	mov	QWORD PTR ?staticMetaObject@sw01_qt_first_project@@2UQMetaObject@@B+16, rax
; Line 83
	lea	rax, OFFSET FLAT:?qt_static_metacall@sw01_qt_first_project@@CAXPEAVQObject@@W4Call@QMetaObject@@HPEAPEAX@Z ; sw01_qt_first_project::qt_static_metacall
	mov	QWORD PTR ?staticMetaObject@sw01_qt_first_project@@2UQMetaObject@@B+24, rax
; Line 84
	mov	QWORD PTR ?staticMetaObject@sw01_qt_first_project@@2UQMetaObject@@B+32, 0
; Line 85
	mov	QWORD PTR ?staticMetaObject@sw01_qt_first_project@@2UQMetaObject@@B+40, 0
	ret	0
??__E?staticMetaObject@sw01_qt_first_project@@2UQMetaObject@@B@@YAXXZ ENDP ; `dynamic initializer for 'sw01_qt_first_project::staticMetaObject''
text$di	ENDS
; Function compile flags: /Odtp
_TEXT	SEGMENT
tv69 = 32
_t$1 = 40
_o$ = 64
_c$ = 72
_id$ = 80
_a$ = 88
?qt_static_metacall@sw01_qt_first_project@@CAXPEAVQObject@@W4Call@QMetaObject@@HPEAPEAX@Z PROC ; sw01_qt_first_project::qt_static_metacall
; File C:\Users\olafj_000\mySciebo\_TIN_WS19\_TIN_SW_BSP\Kap13_Qt\sw01_qt_first_project\sw01_qt_first_project\GeneratedFiles\Debug\moc_sw01_qt_first_project.cpp
; Line 67
$LN8:
	mov	QWORD PTR [rsp+32], r9
	mov	DWORD PTR [rsp+24], r8d
	mov	DWORD PTR [rsp+16], edx
	mov	QWORD PTR [rsp+8], rcx
	sub	rsp, 56					; 00000038H
; Line 68
	cmp	DWORD PTR _c$[rsp], 0
	jne	SHORT $LN4@qt_static_
; Line 69
	mov	rax, QWORD PTR _o$[rsp]
	mov	QWORD PTR _t$1[rsp], rax
; Line 71
	mov	eax, DWORD PTR _id$[rsp]
	mov	DWORD PTR tv69[rsp], eax
	cmp	DWORD PTR tv69[rsp], 0
	je	SHORT $LN5@qt_static_
	jmp	SHORT $LN6@qt_static_
$LN5@qt_static_:
; Line 72
	mov	rcx, QWORD PTR _t$1[rsp]
	call	?myButtonSlotFkt@sw01_qt_first_project@@AEAAXXZ ; sw01_qt_first_project::myButtonSlotFkt
$LN6@qt_static_:
$LN4@qt_static_:
; Line 77
	add	rsp, 56					; 00000038H
	ret	0
?qt_static_metacall@sw01_qt_first_project@@CAXPEAVQObject@@W4Call@QMetaObject@@HPEAPEAX@Z ENDP ; sw01_qt_first_project::qt_static_metacall
_TEXT	ENDS
; Function compile flags: /Odtp
_TEXT	SEGMENT
this$ = 48
_c$ = 56
_id$ = 64
_a$ = 72
?qt_metacall@sw01_qt_first_project@@UEAAHW4Call@QMetaObject@@HPEAPEAX@Z PROC ; sw01_qt_first_project::qt_metacall
; File C:\Users\olafj_000\mySciebo\_TIN_WS19\_TIN_SW_BSP\Kap13_Qt\sw01_qt_first_project\sw01_qt_first_project\GeneratedFiles\Debug\moc_sw01_qt_first_project.cpp
; Line 103
$LN9:
	mov	QWORD PTR [rsp+32], r9
	mov	DWORD PTR [rsp+24], r8d
	mov	DWORD PTR [rsp+16], edx
	mov	QWORD PTR [rsp+8], rcx
	sub	rsp, 40					; 00000028H
; Line 104
	mov	r9, QWORD PTR _a$[rsp]
	mov	r8d, DWORD PTR _id$[rsp]
	mov	edx, DWORD PTR _c$[rsp]
	mov	rcx, QWORD PTR this$[rsp]
	call	QWORD PTR __imp_?qt_metacall@QMainWindow@@UEAAHW4Call@QMetaObject@@HPEAPEAX@Z
	mov	DWORD PTR _id$[rsp], eax
; Line 105
	cmp	DWORD PTR _id$[rsp], 0
	jge	SHORT $LN2@qt_metacal
; Line 106
	mov	eax, DWORD PTR _id$[rsp]
	jmp	SHORT $LN1@qt_metacal
$LN2@qt_metacal:
; Line 107
	cmp	DWORD PTR _c$[rsp], 0
	jne	SHORT $LN3@qt_metacal
; Line 108
	cmp	DWORD PTR _id$[rsp], 1
	jge	SHORT $LN5@qt_metacal
; Line 109
	mov	r9, QWORD PTR _a$[rsp]
	mov	r8d, DWORD PTR _id$[rsp]
	mov	edx, DWORD PTR _c$[rsp]
	mov	rcx, QWORD PTR this$[rsp]
	call	?qt_static_metacall@sw01_qt_first_project@@CAXPEAVQObject@@W4Call@QMetaObject@@HPEAPEAX@Z ; sw01_qt_first_project::qt_static_metacall
$LN5@qt_metacal:
; Line 110
	mov	eax, DWORD PTR _id$[rsp]
	dec	eax
	mov	DWORD PTR _id$[rsp], eax
	jmp	SHORT $LN4@qt_metacal
$LN3@qt_metacal:
; Line 111
	cmp	DWORD PTR _c$[rsp], 12
	jne	SHORT $LN6@qt_metacal
; Line 112
	cmp	DWORD PTR _id$[rsp], 1
	jge	SHORT $LN7@qt_metacal
; Line 113
	mov	eax, 8
	imul	rax, rax, 0
	mov	rcx, QWORD PTR _a$[rsp]
	mov	rax, QWORD PTR [rcx+rax]
	mov	DWORD PTR [rax], -1
$LN7@qt_metacal:
; Line 114
	mov	eax, DWORD PTR _id$[rsp]
	dec	eax
	mov	DWORD PTR _id$[rsp], eax
$LN6@qt_metacal:
$LN4@qt_metacal:
; Line 116
	mov	eax, DWORD PTR _id$[rsp]
$LN1@qt_metacal:
; Line 117
	add	rsp, 40					; 00000028H
	ret	0
?qt_metacall@sw01_qt_first_project@@UEAAHW4Call@QMetaObject@@HPEAPEAX@Z ENDP ; sw01_qt_first_project::qt_metacall
_TEXT	ENDS
; Function compile flags: /Odtp
_TEXT	SEGMENT
this$ = 48
_clname$ = 56
?qt_metacast@sw01_qt_first_project@@UEAAPEAXPEBD@Z PROC	; sw01_qt_first_project::qt_metacast
; File C:\Users\olafj_000\mySciebo\_TIN_WS19\_TIN_SW_BSP\Kap13_Qt\sw01_qt_first_project\sw01_qt_first_project\GeneratedFiles\Debug\moc_sw01_qt_first_project.cpp
; Line 95
$LN5:
	mov	QWORD PTR [rsp+16], rdx
	mov	QWORD PTR [rsp+8], rcx
	sub	rsp, 40					; 00000028H
; Line 96
	cmp	QWORD PTR _clname$[rsp], 0
	jne	SHORT $LN2@qt_metacas
	xor	eax, eax
	jmp	SHORT $LN1@qt_metacas
$LN2@qt_metacas:
; Line 97
	lea	rdx, OFFSET FLAT:?qt_meta_stringdata_sw01_qt_first_project@@3Uqt_meta_stringdata_sw01_qt_first_project_t@@B+72
	mov	rcx, QWORD PTR _clname$[rsp]
	call	strcmp
	test	eax, eax
	jne	SHORT $LN3@qt_metacas
; Line 98
	mov	rax, QWORD PTR this$[rsp]
	jmp	SHORT $LN1@qt_metacas
$LN3@qt_metacas:
; Line 99
	mov	rdx, QWORD PTR _clname$[rsp]
	mov	rcx, QWORD PTR this$[rsp]
	call	QWORD PTR __imp_?qt_metacast@QMainWindow@@UEAAPEAXPEBD@Z
$LN1@qt_metacas:
; Line 100
	add	rsp, 40					; 00000028H
	ret	0
?qt_metacast@sw01_qt_first_project@@UEAAPEAXPEBD@Z ENDP	; sw01_qt_first_project::qt_metacast
_TEXT	ENDS
; Function compile flags: /Odtp
_TEXT	SEGMENT
tv82 = 32
this$ = 64
?metaObject@sw01_qt_first_project@@UEBAPEBUQMetaObject@@XZ PROC ; sw01_qt_first_project::metaObject
; File C:\Users\olafj_000\mySciebo\_TIN_WS19\_TIN_SW_BSP\Kap13_Qt\sw01_qt_first_project\sw01_qt_first_project\GeneratedFiles\Debug\moc_sw01_qt_first_project.cpp
; Line 90
$LN5:
	mov	QWORD PTR [rsp+8], rcx
	sub	rsp, 56					; 00000038H
; Line 91
	mov	rax, QWORD PTR this$[rsp]
	add	rax, 8
	mov	rcx, rax
	call	??C?$QScopedPointer@VQObjectData@@U?$QScopedPointerDeleter@VQObjectData@@@@@@QEBAPEAVQObjectData@@XZ ; QScopedPointer<QObjectData,QScopedPointerDeleter<QObjectData> >::operator->
	cmp	QWORD PTR [rax+40], 0
	je	SHORT $LN3@metaObject
	mov	rax, QWORD PTR this$[rsp]
	add	rax, 8
	mov	rcx, rax
	call	??C?$QScopedPointer@VQObjectData@@U?$QScopedPointerDeleter@VQObjectData@@@@@@QEBAPEAVQObjectData@@XZ ; QScopedPointer<QObjectData,QScopedPointerDeleter<QObjectData> >::operator->
	mov	rcx, rax
	call	QWORD PTR __imp_?dynamicMetaObject@QObjectData@@QEBAPEAUQMetaObject@@XZ
	mov	QWORD PTR tv82[rsp], rax
	jmp	SHORT $LN4@metaObject
$LN3@metaObject:
	lea	rax, OFFSET FLAT:?staticMetaObject@sw01_qt_first_project@@2UQMetaObject@@B ; sw01_qt_first_project::staticMetaObject
	mov	QWORD PTR tv82[rsp], rax
$LN4@metaObject:
	mov	rax, QWORD PTR tv82[rsp]
; Line 92
	add	rsp, 56					; 00000038H
	ret	0
?metaObject@sw01_qt_first_project@@UEBAPEBUQMetaObject@@XZ ENDP ; sw01_qt_first_project::metaObject
_TEXT	ENDS
; Function compile flags: /Odtp
;	COMDAT ??C?$QScopedPointer@VQObjectData@@U?$QScopedPointerDeleter@VQObjectData@@@@@@QEBAPEAVQObjectData@@XZ
_TEXT	SEGMENT
this$ = 8
??C?$QScopedPointer@VQObjectData@@U?$QScopedPointerDeleter@VQObjectData@@@@@@QEBAPEAVQObjectData@@XZ PROC ; QScopedPointer<QObjectData,QScopedPointerDeleter<QObjectData> >::operator->, COMDAT
; File C:\Qt\5.11.2\msvc2017_64\include\QtCore\qscopedpointer.h
; Line 117
	mov	QWORD PTR [rsp+8], rcx
; Line 118
	mov	rax, QWORD PTR this$[rsp]
	mov	rax, QWORD PTR [rax]
; Line 119
	ret	0
??C?$QScopedPointer@VQObjectData@@U?$QScopedPointerDeleter@VQObjectData@@@@@@QEBAPEAVQObjectData@@XZ ENDP ; QScopedPointer<QObjectData,QScopedPointerDeleter<QObjectData> >::operator->
_TEXT	ENDS
; Function compile flags: /Odtp
;	COMDAT ?__empty_global_delete@@YAXPEAX_K@Z
_TEXT	SEGMENT
__formal$ = 8
__formal$ = 16
?__empty_global_delete@@YAXPEAX_K@Z PROC		; __empty_global_delete, COMDAT
; File C:\Users\olafj_000\mySciebo\_TIN_WS19\_TIN_SW_BSP\Kap13_Qt\sw01_qt_first_project\sw01_qt_first_project\GeneratedFiles\Debug\moc_sw01_qt_first_project.cpp
; Line 120
	mov	QWORD PTR [rsp+16], rdx
	mov	QWORD PTR [rsp+8], rcx
	ret	0
?__empty_global_delete@@YAXPEAX_K@Z ENDP		; __empty_global_delete
_TEXT	ENDS
; Function compile flags: /Odtp
;	COMDAT ?__empty_global_delete@@YAXPEAX@Z
_TEXT	SEGMENT
__formal$ = 8
?__empty_global_delete@@YAXPEAX@Z PROC			; __empty_global_delete, COMDAT
; File C:\Users\olafj_000\mySciebo\_TIN_WS19\_TIN_SW_BSP\Kap13_Qt\sw01_qt_first_project\sw01_qt_first_project\GeneratedFiles\Debug\moc_sw01_qt_first_project.cpp
; Line 120
	mov	QWORD PTR [rsp+8], rcx
	ret	0
?__empty_global_delete@@YAXPEAX@Z ENDP			; __empty_global_delete
_TEXT	ENDS
END
