; Listing generated by Microsoft (R) Optimizing Compiler Version 19.23.28105.4 

include listing.inc

INCLUDELIB MSVCRTD
INCLUDELIB OLDNAMES

PUBLIC	?qInitResources_sw01_qt_first_project@@YAHXZ	; qInitResources_sw01_qt_first_project
PUBLIC	?qCleanupResources_sw01_qt_first_project@@YAHXZ	; qCleanupResources_sw01_qt_first_project
EXTRN	atexit:PROC
EXTRN	__CxxFrameHandler4:PROC
_BSS	SEGMENT
?dummy@?A0xf921aec5@@3Uinitializer@1@A DB 01H DUP (?)	; `anonymous namespace'::dummy
_BSS	ENDS
;	COMDAT pdata
pdata	SEGMENT
$pdata$??0initializer@?A0xf921aec5@@QEAA@XZ DD imagerel ??0initializer@?A0xf921aec5@@QEAA@XZ
	DD	imagerel ??0initializer@?A0xf921aec5@@QEAA@XZ+24
	DD	imagerel $unwind$??0initializer@?A0xf921aec5@@QEAA@XZ
pdata	ENDS
;	COMDAT pdata
pdata	SEGMENT
$pdata$??1initializer@?A0xf921aec5@@QEAA@XZ DD imagerel ??1initializer@?A0xf921aec5@@QEAA@XZ
	DD	imagerel ??1initializer@?A0xf921aec5@@QEAA@XZ+20
	DD	imagerel $unwind$??1initializer@?A0xf921aec5@@QEAA@XZ
pdata	ENDS
;	COMDAT pdata
pdata	SEGMENT
$pdata$??__Edummy@?A0xf921aec5@@YAXXZ DD imagerel ??__Edummy@?A0xf921aec5@@YAXXZ
	DD	imagerel ??__Edummy@?A0xf921aec5@@YAXXZ+33
	DD	imagerel $unwind$??__Edummy@?A0xf921aec5@@YAXXZ
pdata	ENDS
;	COMDAT pdata
pdata	SEGMENT
$pdata$??__Fdummy@?A0xf921aec5@@YAXXZ DD imagerel ??__Fdummy@?A0xf921aec5@@YAXXZ
	DD	imagerel ??__Fdummy@?A0xf921aec5@@YAXXZ+21
	DD	imagerel $unwind$??__Fdummy@?A0xf921aec5@@YAXXZ
pdata	ENDS
CRT$XCU	SEGMENT
?dummy$initializer$@?A0xf921aec5@@3P6AXXZEA DQ FLAT:??__Edummy@?A0xf921aec5@@YAXXZ ; `anonymous namespace'::dummy$initializer$
CRT$XCU	ENDS
;	COMDAT xdata
xdata	SEGMENT
$unwind$??__Fdummy@?A0xf921aec5@@YAXXZ DD 010401H
	DD	04204H
xdata	ENDS
;	COMDAT xdata
xdata	SEGMENT
$unwind$??__Edummy@?A0xf921aec5@@YAXXZ DD 010401H
	DD	04204H
xdata	ENDS
;	COMDAT xdata
xdata	SEGMENT
$ip2state$??1initializer@?A0xf921aec5@@QEAA@XZ DB 02H
	DB	00H
	DB	00H
xdata	ENDS
;	COMDAT xdata
xdata	SEGMENT
$cppxdata$??1initializer@?A0xf921aec5@@QEAA@XZ DB 060H
	DD	imagerel $ip2state$??1initializer@?A0xf921aec5@@QEAA@XZ
xdata	ENDS
;	COMDAT xdata
xdata	SEGMENT
$unwind$??1initializer@?A0xf921aec5@@QEAA@XZ DD 010919H
	DD	04209H
	DD	imagerel __CxxFrameHandler4
	DD	imagerel $cppxdata$??1initializer@?A0xf921aec5@@QEAA@XZ
xdata	ENDS
;	COMDAT xdata
xdata	SEGMENT
$unwind$??0initializer@?A0xf921aec5@@QEAA@XZ DD 010901H
	DD	04209H
xdata	ENDS
; Function compile flags: /Odtp
;	COMDAT ??__Fdummy@?A0xf921aec5@@YAXXZ
text$yd	SEGMENT
??__Fdummy@?A0xf921aec5@@YAXXZ PROC			; `anonymous namespace'::`dynamic atexit destructor for 'dummy'', COMDAT
	sub	rsp, 40					; 00000028H
	lea	rcx, OFFSET FLAT:?dummy@?A0xf921aec5@@3Uinitializer@1@A ; `anonymous namespace'::dummy
	call	??1initializer@?A0xf921aec5@@QEAA@XZ	; `anonymous namespace'::initializer::~initializer
	add	rsp, 40					; 00000028H
	ret	0
??__Fdummy@?A0xf921aec5@@YAXXZ ENDP			; `anonymous namespace'::`dynamic atexit destructor for 'dummy''
text$yd	ENDS
; Function compile flags: /Odtp
;	COMDAT ??__Edummy@?A0xf921aec5@@YAXXZ
text$di	SEGMENT
??__Edummy@?A0xf921aec5@@YAXXZ PROC			; `anonymous namespace'::`dynamic initializer for 'dummy'', COMDAT
; File C:\Users\olafj_000\mySciebo\_TIN_WS19\_TIN_SW_BSP\Kap13_Qt\sw01_qt_first_project\sw01_qt_first_project\GeneratedFiles\qrc_sw01_qt_first_project.cpp
; Line 45
	sub	rsp, 40					; 00000028H
	lea	rcx, OFFSET FLAT:?dummy@?A0xf921aec5@@3Uinitializer@1@A ; `anonymous namespace'::dummy
	call	??0initializer@?A0xf921aec5@@QEAA@XZ	; `anonymous namespace'::initializer::initializer
	lea	rcx, OFFSET FLAT:??__Fdummy@?A0xf921aec5@@YAXXZ ; `anonymous namespace'::`dynamic atexit destructor for 'dummy''
	call	atexit
	add	rsp, 40					; 00000028H
	ret	0
??__Edummy@?A0xf921aec5@@YAXXZ ENDP			; `anonymous namespace'::`dynamic initializer for 'dummy''
text$di	ENDS
; Function compile flags: /Odtp
;	COMDAT ??1initializer@?A0xf921aec5@@QEAA@XZ
_TEXT	SEGMENT
this$ = 48
??1initializer@?A0xf921aec5@@QEAA@XZ PROC		; `anonymous namespace'::initializer::~initializer, COMDAT
; File C:\Users\olafj_000\mySciebo\_TIN_WS19\_TIN_SW_BSP\Kap13_Qt\sw01_qt_first_project\sw01_qt_first_project\GeneratedFiles\qrc_sw01_qt_first_project.cpp
; Line 44
	mov	QWORD PTR [rsp+8], rcx
	sub	rsp, 40					; 00000028H
	call	?qCleanupResources_sw01_qt_first_project@@YAHXZ ; qCleanupResources_sw01_qt_first_project
	npad	1
	add	rsp, 40					; 00000028H
	ret	0
??1initializer@?A0xf921aec5@@QEAA@XZ ENDP		; `anonymous namespace'::initializer::~initializer
_TEXT	ENDS
; Function compile flags: /Odtp
;	COMDAT ??0initializer@?A0xf921aec5@@QEAA@XZ
_TEXT	SEGMENT
this$ = 48
??0initializer@?A0xf921aec5@@QEAA@XZ PROC		; `anonymous namespace'::initializer::initializer, COMDAT
; File C:\Users\olafj_000\mySciebo\_TIN_WS19\_TIN_SW_BSP\Kap13_Qt\sw01_qt_first_project\sw01_qt_first_project\GeneratedFiles\qrc_sw01_qt_first_project.cpp
; Line 43
	mov	QWORD PTR [rsp+8], rcx
	sub	rsp, 40					; 00000028H
	call	?qInitResources_sw01_qt_first_project@@YAHXZ ; qInitResources_sw01_qt_first_project
	mov	rax, QWORD PTR this$[rsp]
	add	rsp, 40					; 00000028H
	ret	0
??0initializer@?A0xf921aec5@@QEAA@XZ ENDP		; `anonymous namespace'::initializer::initializer
_TEXT	ENDS
; Function compile flags: /Odtp
_TEXT	SEGMENT
?qCleanupResources_sw01_qt_first_project@@YAHXZ PROC	; qCleanupResources_sw01_qt_first_project
; File C:\Users\olafj_000\mySciebo\_TIN_WS19\_TIN_SW_BSP\Kap13_Qt\sw01_qt_first_project\sw01_qt_first_project\GeneratedFiles\qrc_sw01_qt_first_project.cpp
; Line 38
	mov	eax, 1
; Line 39
	ret	0
?qCleanupResources_sw01_qt_first_project@@YAHXZ ENDP	; qCleanupResources_sw01_qt_first_project
_TEXT	ENDS
; Function compile flags: /Odtp
_TEXT	SEGMENT
?qInitResources_sw01_qt_first_project@@YAHXZ PROC	; qInitResources_sw01_qt_first_project
; File C:\Users\olafj_000\mySciebo\_TIN_WS19\_TIN_SW_BSP\Kap13_Qt\sw01_qt_first_project\sw01_qt_first_project\GeneratedFiles\qrc_sw01_qt_first_project.cpp
; Line 32
	mov	eax, 1
; Line 33
	ret	0
?qInitResources_sw01_qt_first_project@@YAHXZ ENDP	; qInitResources_sw01_qt_first_project
_TEXT	ENDS
END
